; Function Attrs: mustprogress nounwind uwtable
define dso_local noundef zeroext i1 @_ZN5clang6interp15ByteCodeEmitter15emitInvalidCastENS0_8CastKindEbRKNS0_10SourceInfoE(ptr noundef nonnull align 8 dereferenceable(488) %0, i8 noundef zeroext %1, i1 noundef zeroext %2, ptr noundef nonnull align 8 dereferenceable(8) %3) local_unnamed_addr #0 align 2 {
  %5 = alloca i8, align 1
  %6 = alloca i8, align 1
  store i8 %1, ptr %5, align 1
  %7 = zext i1 %2 to i8
  store i8 %7, ptr %6, align 1
  %8 = call noundef zeroext i1 @_ZN5clang6interp15ByteCodeEmitter6emitOpIJNS0_8CastKindEbEEEbNS0_6OpcodeEDpRKT_RKNS0_10SourceInfoE(ptr noundef nonnull align 8 dereferenceable(488) %0, i32 noundef 1004, ptr noundef nonnull align 1 dereferenceable(1) %5, ptr noundef nonnull align 1 dereferenceable(1) %6, ptr noundef nonnull align 8 dereferenceable(8) %3)
  ret i1 %8
}